SF:/Users/r/git/mcp-loxone-seperation/pulseengine-mcp/mcp-security-middleware/src/auth.rs
FN:188,_RNvXs0_NtCskktBmG9IcvD_35pulseengine_mcp_security_middleware4authNtB5_14TokenValidatorNtNtCsd2KPTObkMr_4core3fmt5Debug3fmt
FN:310,_RNvXs3_NtCskktBmG9IcvD_35pulseengine_mcp_security_middleware4authNtB5_15ApiKeyValidatorNtNtCsd2KPTObkMr_4core7default7Default7default
FN:73,_RNvMNtCskktBmG9IcvD_35pulseengine_mcp_security_middleware4authNtB2_11AuthContext15with_jwt_claims
FN:38,_RNvMNtCskktBmG9IcvD_35pulseengine_mcp_security_middleware4authNtB2_11AuthContext3new
FN:89,_RNvMNtCskktBmG9IcvD_35pulseengine_mcp_security_middleware4authNtB2_11AuthContext8has_role
FN:240,_RNvMs1_NtCskktBmG9IcvD_35pulseengine_mcp_security_middleware4authNtB5_14TokenValidator12create_token
FN:218,_RNvMs1_NtCskktBmG9IcvD_35pulseengine_mcp_security_middleware4authNtB5_14TokenValidator14validate_token
FN:199,_RNvMs1_NtCskktBmG9IcvD_35pulseengine_mcp_security_middleware4authNtB5_14TokenValidator3new
FN:265,_RNvMs2_NtCskktBmG9IcvD_35pulseengine_mcp_security_middleware4authNtB5_15ApiKeyValidator11add_api_key
FN:291,_RNvMs2_NtCskktBmG9IcvD_35pulseengine_mcp_security_middleware4authNtB5_15ApiKeyValidator14remove_api_key
FN:275,_RNvMs2_NtCskktBmG9IcvD_35pulseengine_mcp_security_middleware4authNtB5_15ApiKeyValidator16validate_api_key
FN:299,_RNvMs2_NtCskktBmG9IcvD_35pulseengine_mcp_security_middleware4authNtB5_15ApiKeyValidator3len
FN:258,_RNvMs2_NtCskktBmG9IcvD_35pulseengine_mcp_security_middleware4authNtB5_15ApiKeyValidator3new
FN:304,_RNvMs2_NtCskktBmG9IcvD_35pulseengine_mcp_security_middleware4authNtB5_15ApiKeyValidator8is_empty
FN:164,_RNvMs_NtCskktBmG9IcvD_35pulseengine_mcp_security_middleware4authNtB4_9JwtClaims10is_expired
FN:158,_RNvMs_NtCskktBmG9IcvD_35pulseengine_mcp_security_middleware4authNtB4_9JwtClaims10with_roles
FN:141,_RNvMs_NtCskktBmG9IcvD_35pulseengine_mcp_security_middleware4authNtB4_9JwtClaims3new
FN:337,_RNvNtNtCskktBmG9IcvD_35pulseengine_mcp_security_middleware4auth5testss_15test_jwt_claims
FN:379,_RNvNtNtCskktBmG9IcvD_35pulseengine_mcp_security_middleware4auth5testss_20test_token_validator
FN:354,_RNvNtNtCskktBmG9IcvD_35pulseengine_mcp_security_middleware4auth5testss_22test_api_key_validator
FN:320,_RNvNtNtCskktBmG9IcvD_35pulseengine_mcp_security_middleware4auth5testss_26test_auth_context_creation
FN:57,_RINvMNtCskktBmG9IcvD_35pulseengine_mcp_security_middleware4authNtB3_11AuthContext10with_rolesINtNtCs7fnLZwG9eJV_5alloc3vec3VecReEB20_EB5_
FN:94,_RINvMNtCskktBmG9IcvD_35pulseengine_mcp_security_middleware4authNtB3_11AuthContext12has_any_roleRARej2_EB5_
FN:67,_RINvMNtCskktBmG9IcvD_35pulseengine_mcp_security_middleware4authNtB3_11AuthContext12with_api_keyNtNtCs7fnLZwG9eJV_5alloc6string6StringEB5_
FN:79,_RINvMNtCskktBmG9IcvD_35pulseengine_mcp_security_middleware4authNtB3_11AuthContext13with_metadataReB1w_EB5_
FN:51,_RINvMNtCskktBmG9IcvD_35pulseengine_mcp_security_middleware4authNtB3_11AuthContext9with_roleReEB5_
FN:62,_RNCINvMNtCskktBmG9IcvD_35pulseengine_mcp_security_middleware4authNtB5_11AuthContext10with_rolesINtNtCs7fnLZwG9eJV_5alloc3vec3VecReEB22_E0B7_
FNDA:0,_RNvXs0_NtCskktBmG9IcvD_35pulseengine_mcp_security_middleware4authNtB5_14TokenValidatorNtNtCsd2KPTObkMr_4core3fmt5Debug3fmt
FNDA:0,_RNvXs3_NtCskktBmG9IcvD_35pulseengine_mcp_security_middleware4authNtB5_15ApiKeyValidatorNtNtCsd2KPTObkMr_4core7default7Default7default
FNDA:0,_RNvMNtCskktBmG9IcvD_35pulseengine_mcp_security_middleware4authNtB2_11AuthContext15with_jwt_claims
FNDA:1,_RNvMNtCskktBmG9IcvD_35pulseengine_mcp_security_middleware4authNtB2_11AuthContext3new
FNDA:7,_RNvMNtCskktBmG9IcvD_35pulseengine_mcp_security_middleware4authNtB2_11AuthContext8has_role
FNDA:1,_RNvMs1_NtCskktBmG9IcvD_35pulseengine_mcp_security_middleware4authNtB5_14TokenValidator12create_token
FNDA:1,_RNvMs1_NtCskktBmG9IcvD_35pulseengine_mcp_security_middleware4authNtB5_14TokenValidator14validate_token
FNDA:2,_RNvMs1_NtCskktBmG9IcvD_35pulseengine_mcp_security_middleware4authNtB5_14TokenValidator3new
FNDA:2,_RNvMs2_NtCskktBmG9IcvD_35pulseengine_mcp_security_middleware4authNtB5_15ApiKeyValidator11add_api_key
FNDA:1,_RNvMs2_NtCskktBmG9IcvD_35pulseengine_mcp_security_middleware4authNtB5_15ApiKeyValidator14remove_api_key
FNDA:2,_RNvMs2_NtCskktBmG9IcvD_35pulseengine_mcp_security_middleware4authNtB5_15ApiKeyValidator16validate_api_key
FNDA:2,_RNvMs2_NtCskktBmG9IcvD_35pulseengine_mcp_security_middleware4authNtB5_15ApiKeyValidator3len
FNDA:2,_RNvMs2_NtCskktBmG9IcvD_35pulseengine_mcp_security_middleware4authNtB5_15ApiKeyValidator3new
FNDA:1,_RNvMs2_NtCskktBmG9IcvD_35pulseengine_mcp_security_middleware4authNtB5_15ApiKeyValidator8is_empty
FNDA:2,_RNvMs_NtCskktBmG9IcvD_35pulseengine_mcp_security_middleware4authNtB4_9JwtClaims10is_expired
FNDA:1,_RNvMs_NtCskktBmG9IcvD_35pulseengine_mcp_security_middleware4authNtB4_9JwtClaims10with_roles
FNDA:2,_RNvMs_NtCskktBmG9IcvD_35pulseengine_mcp_security_middleware4authNtB4_9JwtClaims3new
FNDA:1,_RNvNtNtCskktBmG9IcvD_35pulseengine_mcp_security_middleware4auth5testss_15test_jwt_claims
FNDA:1,_RNvNtNtCskktBmG9IcvD_35pulseengine_mcp_security_middleware4auth5testss_20test_token_validator
FNDA:1,_RNvNtNtCskktBmG9IcvD_35pulseengine_mcp_security_middleware4auth5testss_22test_api_key_validator
FNDA:1,_RNvNtNtCskktBmG9IcvD_35pulseengine_mcp_security_middleware4auth5testss_26test_auth_context_creation
FNDA:1,_RINvMNtCskktBmG9IcvD_35pulseengine_mcp_security_middleware4authNtB3_11AuthContext10with_rolesINtNtCs7fnLZwG9eJV_5alloc3vec3VecReEB20_EB5_
FNDA:2,_RINvMNtCskktBmG9IcvD_35pulseengine_mcp_security_middleware4authNtB3_11AuthContext12has_any_roleRARej2_EB5_
FNDA:0,_RINvMNtCskktBmG9IcvD_35pulseengine_mcp_security_middleware4authNtB3_11AuthContext12with_api_keyNtNtCs7fnLZwG9eJV_5alloc6string6StringEB5_
FNDA:1,_RINvMNtCskktBmG9IcvD_35pulseengine_mcp_security_middleware4authNtB3_11AuthContext13with_metadataReB1w_EB5_
FNDA:1,_RINvMNtCskktBmG9IcvD_35pulseengine_mcp_security_middleware4authNtB3_11AuthContext9with_roleReEB5_
FNDA:2,_RNCINvMNtCskktBmG9IcvD_35pulseengine_mcp_security_middleware4authNtB5_11AuthContext10with_rolesINtNtCs7fnLZwG9eJV_5alloc3vec3VecReEB22_E0B7_
FNF:27
FNH:23
DA:38,1
DA:39,1
DA:40,1
DA:41,1
DA:42,1
DA:43,1
DA:44,1
DA:45,1
DA:46,1
DA:47,1
DA:48,1
DA:51,1
DA:52,1
DA:53,1
DA:54,1
DA:57,1
DA:58,1
DA:59,1
DA:60,1
DA:62,2
DA:63,1
DA:64,1
DA:67,0
DA:68,0
DA:69,0
DA:70,0
DA:73,0
DA:74,0
DA:75,0
DA:76,0
DA:79,1
DA:80,1
DA:81,1
DA:82,1
DA:84,1
DA:85,1
DA:86,1
DA:89,7
DA:90,7
DA:91,7
DA:94,2
DA:95,2
DA:96,2
DA:97,2
DA:99,4
DA:100,3
DA:101,1
DA:102,2
DA:104,1
DA:105,2
DA:141,2
DA:142,2
DA:144,2
DA:145,2
DA:146,2
DA:147,2
DA:148,2
DA:149,2
DA:150,2
DA:151,2
DA:152,2
DA:153,2
DA:154,2
DA:155,2
DA:158,1
DA:159,1
DA:160,1
DA:161,1
DA:164,2
DA:165,2
DA:166,2
DA:188,0
DA:189,0
DA:190,0
DA:191,0
DA:192,0
DA:193,0
DA:194,0
DA:199,2
DA:200,2
DA:202,2
DA:203,2
DA:204,2
DA:205,2
DA:206,2
DA:208,2
DA:209,2
DA:210,2
DA:211,2
DA:212,2
DA:213,2
DA:214,2
DA:215,2
DA:218,1
DA:219,1
DA:221,1
DA:224,1
DA:225,0
DA:226,1
DA:228,1
DA:229,0
DA:230,1
DA:232,1
DA:233,0
DA:234,1
DA:236,1
DA:237,1
DA:240,1
DA:241,1
DA:243,1
DA:245,1
DA:246,1
DA:258,2
DA:259,2
DA:260,2
DA:261,2
DA:262,2
DA:265,2
DA:266,2
DA:268,2
DA:269,2
DA:271,2
DA:272,2
DA:275,2
DA:276,2
DA:278,2
DA:281,3
DA:282,2
DA:283,1
DA:284,1
DA:287,1
DA:288,2
DA:291,1
DA:292,1
DA:294,1
DA:295,1
DA:296,1
DA:299,2
DA:300,2
DA:301,2
DA:304,1
DA:305,1
DA:306,1
DA:310,0
DA:311,0
DA:312,0
DA:320,1
DA:321,1
DA:322,1
DA:323,1
DA:324,1
DA:326,1
DA:327,1
DA:328,1
DA:329,1
DA:330,1
DA:331,1
DA:332,1
DA:333,1
DA:334,1
DA:337,1
DA:338,1
DA:339,1
DA:340,1
DA:341,1
DA:344,1
DA:346,1
DA:347,1
DA:348,1
DA:349,1
DA:350,1
DA:351,1
DA:354,1
DA:355,1
DA:356,1
DA:359,1
DA:360,1
DA:361,1
DA:362,1
DA:365,1
DA:366,1
DA:369,1
DA:370,1
DA:373,1
DA:374,1
DA:375,1
DA:376,1
DA:379,1
DA:380,1
DA:381,1
DA:382,1
DA:383,1
DA:386,1
DA:387,1
DA:388,1
DA:389,1
DA:394,1
DA:395,1
DA:397,1
DA:398,1
DA:399,1
DA:400,1
BRF:0
BRH:0
LF:203
LH:182
end_of_record
SF:/Users/r/git/mcp-loxone-seperation/pulseengine-mcp/mcp-security-middleware/src/config.rs
FN:81,_RNvMNtCskktBmG9IcvD_35pulseengine_mcp_security_middleware6configNtB2_14SecurityConfig10production
FN:51,_RNvMNtCskktBmG9IcvD_35pulseengine_mcp_security_middleware6configNtB2_14SecurityConfig11development
FN:109,_RNvMNtCskktBmG9IcvD_35pulseengine_mcp_security_middleware6configNtB2_14SecurityConfig13load_from_env
FN:273,_RNvMNtCskktBmG9IcvD_35pulseengine_mcp_security_middleware6configNtB2_14SecurityConfig17create_middleware
FN:259,_RNvMNtCskktBmG9IcvD_35pulseengine_mcp_security_middleware6configNtB2_14SecurityConfig22create_token_validator
FN:248,_RNvMNtCskktBmG9IcvD_35pulseengine_mcp_security_middleware6configNtB2_14SecurityConfig24create_api_key_validator
FN:38,_RNvMNtCskktBmG9IcvD_35pulseengine_mcp_security_middleware6configNtB2_14SecurityConfig3new
FN:66,_RNvMNtCskktBmG9IcvD_35pulseengine_mcp_security_middleware6configNtB2_14SecurityConfig7staging
FN:289,_RNvMNtCskktBmG9IcvD_35pulseengine_mcp_security_middleware6configNtB2_14SecurityConfig7summary
FN:88,_RNvMNtCskktBmG9IcvD_35pulseengine_mcp_security_middleware6configNtB2_14SecurityConfig8from_env
FN:206,_RNvMNtCskktBmG9IcvD_35pulseengine_mcp_security_middleware6configNtB2_14SecurityConfig8validate
FN:417,_RNvNtCskktBmG9IcvD_35pulseengine_mcp_security_middleware6config16parse_rate_limit
FN:345,_RNvXs_NtCskktBmG9IcvD_35pulseengine_mcp_security_middleware6configNtB4_13ConfigSummaryNtNtCsd2KPTObkMr_4core3fmt7Display3fmt
FN:512,_RNvNtNtCskktBmG9IcvD_35pulseengine_mcp_security_middleware6config5testss_19test_config_summary
FN:499,_RNvNtNtCskktBmG9IcvD_35pulseengine_mcp_security_middleware6config5testss_21test_parse_rate_limit
FN:464,_RNvNtNtCskktBmG9IcvD_35pulseengine_mcp_security_middleware6config5testss_22test_config_validation
FN:454,_RNvNtNtCskktBmG9IcvD_35pulseengine_mcp_security_middleware6config5testss_22test_production_config
FN:445,_RNvNtNtCskktBmG9IcvD_35pulseengine_mcp_security_middleware6config5testss_23test_development_config
FN:476,_RNvNtNtCskktBmG9IcvD_35pulseengine_mcp_security_middleware6config5testss_23test_env_config_loading
FN:523,_RNvNtNtCskktBmG9IcvD_35pulseengine_mcp_security_middleware6config5testss_27test_config_builder_methods
FN:305,_RINvMNtCskktBmG9IcvD_35pulseengine_mcp_security_middleware6configNtB3_14SecurityConfig12with_api_keyReEB5_
FN:317,_RINvMNtCskktBmG9IcvD_35pulseengine_mcp_security_middleware6configNtB3_14SecurityConfig15with_jwt_issuerReEB5_
FN:311,_RINvMNtCskktBmG9IcvD_35pulseengine_mcp_security_middleware6configNtB3_14SecurityConfig15with_jwt_secretReEB5_
FN:323,_RINvMNtCskktBmG9IcvD_35pulseengine_mcp_security_middleware6configNtB3_14SecurityConfig17with_jwt_audienceReEB5_
FN:197,_RNCNvMNtCskktBmG9IcvD_35pulseengine_mcp_security_middleware6configNtB4_14SecurityConfig13load_from_env0B6_
FN:273,_RNCNvMNtCskktBmG9IcvD_35pulseengine_mcp_security_middleware6configNtB4_14SecurityConfig17create_middleware0B6_
FN:91,_RNCNvMNtCskktBmG9IcvD_35pulseengine_mcp_security_middleware6configNtB4_14SecurityConfig8from_env0B6_
FNDA:4,_RNvMNtCskktBmG9IcvD_35pulseengine_mcp_security_middleware6configNtB2_14SecurityConfig10production
FNDA:9,_RNvMNtCskktBmG9IcvD_35pulseengine_mcp_security_middleware6configNtB2_14SecurityConfig11development
FNDA:4,_RNvMNtCskktBmG9IcvD_35pulseengine_mcp_security_middleware6configNtB2_14SecurityConfig13load_from_env
FNDA:1,_RNvMNtCskktBmG9IcvD_35pulseengine_mcp_security_middleware6configNtB2_14SecurityConfig17create_middleware
FNDA:1,_RNvMNtCskktBmG9IcvD_35pulseengine_mcp_security_middleware6configNtB2_14SecurityConfig22create_token_validator
FNDA:1,_RNvMNtCskktBmG9IcvD_35pulseengine_mcp_security_middleware6configNtB2_14SecurityConfig24create_api_key_validator
FNDA:14,_RNvMNtCskktBmG9IcvD_35pulseengine_mcp_security_middleware6configNtB2_14SecurityConfig3new
FNDA:1,_RNvMNtCskktBmG9IcvD_35pulseengine_mcp_security_middleware6configNtB2_14SecurityConfig7staging
FNDA:1,_RNvMNtCskktBmG9IcvD_35pulseengine_mcp_security_middleware6configNtB2_14SecurityConfig7summary
FNDA:5,_RNvMNtCskktBmG9IcvD_35pulseengine_mcp_security_middleware6configNtB2_14SecurityConfig8from_env
FNDA:3,_RNvMNtCskktBmG9IcvD_35pulseengine_mcp_security_middleware6configNtB2_14SecurityConfig8validate
FNDA:3,_RNvNtCskktBmG9IcvD_35pulseengine_mcp_security_middleware6config16parse_rate_limit
FNDA:0,_RNvXs_NtCskktBmG9IcvD_35pulseengine_mcp_security_middleware6configNtB4_13ConfigSummaryNtNtCsd2KPTObkMr_4core3fmt7Display3fmt
FNDA:1,_RNvNtNtCskktBmG9IcvD_35pulseengine_mcp_security_middleware6config5testss_19test_config_summary
FNDA:1,_RNvNtNtCskktBmG9IcvD_35pulseengine_mcp_security_middleware6config5testss_21test_parse_rate_limit
FNDA:1,_RNvNtNtCskktBmG9IcvD_35pulseengine_mcp_security_middleware6config5testss_22test_config_validation
FNDA:1,_RNvNtNtCskktBmG9IcvD_35pulseengine_mcp_security_middleware6config5testss_22test_production_config
FNDA:1,_RNvNtNtCskktBmG9IcvD_35pulseengine_mcp_security_middleware6config5testss_23test_development_config
FNDA:1,_RNvNtNtCskktBmG9IcvD_35pulseengine_mcp_security_middleware6config5testss_23test_env_config_loading
FNDA:1,_RNvNtNtCskktBmG9IcvD_35pulseengine_mcp_security_middleware6config5testss_27test_config_builder_methods
FNDA:1,_RINvMNtCskktBmG9IcvD_35pulseengine_mcp_security_middleware6configNtB3_14SecurityConfig12with_api_keyReEB5_
FNDA:1,_RINvMNtCskktBmG9IcvD_35pulseengine_mcp_security_middleware6configNtB3_14SecurityConfig15with_jwt_issuerReEB5_
FNDA:1,_RINvMNtCskktBmG9IcvD_35pulseengine_mcp_security_middleware6configNtB3_14SecurityConfig15with_jwt_secretReEB5_
FNDA:1,_RINvMNtCskktBmG9IcvD_35pulseengine_mcp_security_middleware6configNtB3_14SecurityConfig17with_jwt_audienceReEB5_
FNDA:0,_RNCNvMNtCskktBmG9IcvD_35pulseengine_mcp_security_middleware6configNtB4_14SecurityConfig13load_from_env0B6_
FNDA:1,_RNCNvMNtCskktBmG9IcvD_35pulseengine_mcp_security_middleware6configNtB4_14SecurityConfig17create_middleware0B6_
FNDA:0,_RNCNvMNtCskktBmG9IcvD_35pulseengine_mcp_security_middleware6configNtB4_14SecurityConfig8from_env0B6_
FNF:27
FNH:24
DA:38,14
DA:39,14
DA:40,14
DA:41,14
DA:42,14
DA:43,14
DA:44,14
DA:45,14
DA:46,14
DA:47,14
DA:48,14
DA:51,9
DA:52,9
DA:53,9
DA:54,9
DA:57,9
DA:58,9
DA:59,9
DA:60,9
DA:62,9
DA:63,9
DA:66,1
DA:67,1
DA:68,1
DA:69,1
DA:72,1
DA:73,1
DA:74,1
DA:75,1
DA:77,1
DA:78,1
DA:81,4
DA:82,4
DA:83,4
DA:84,4
DA:85,4
DA:88,5
DA:90,5
DA:91,5
DA:92,5
DA:95,4
DA:96,2
DA:97,1
DA:98,1
DA:99,0
DA:103,4
DA:105,4
DA:106,5
DA:109,4
DA:111,4
DA:112,1
DA:113,0
DA:114,0
DA:115,0
DA:117,0
DA:118,0
DA:119,0
DA:121,1
DA:122,1
DA:123,1
DA:124,3
DA:127,4
DA:128,1
DA:129,0
DA:130,0
DA:131,0
DA:133,0
DA:134,0
DA:135,0
DA:137,1
DA:138,1
DA:139,1
DA:140,3
DA:143,4
DA:144,0
DA:145,4
DA:148,4
DA:149,0
DA:150,4
DA:153,4
DA:154,0
DA:155,0
DA:156,4
DA:159,4
DA:160,0
DA:161,0
DA:162,0
DA:163,4
DA:166,4
DA:167,0
DA:168,0
DA:169,0
DA:170,4
DA:173,4
DA:174,0
DA:175,0
DA:176,0
DA:177,4
DA:180,4
DA:181,0
DA:182,0
DA:183,0
DA:184,4
DA:187,4
DA:188,0
DA:189,0
DA:190,0
DA:191,0
DA:192,0
DA:193,0
DA:195,0
DA:196,0
DA:197,0
DA:198,0
DA:200,4
DA:202,4
DA:203,4
DA:206,3
DA:208,3
DA:211,3
DA:212,1
DA:213,1
DA:215,1
DA:216,1
DA:217,1
DA:218,1
DA:219,1
DA:220,2
DA:223,2
DA:224,2
DA:225,0
DA:226,0
DA:227,0
DA:228,2
DA:230,2
DA:231,0
DA:232,2
DA:234,2
DA:235,0
DA:236,2
DA:237,0
DA:240,2
DA:241,2
DA:242,0
DA:244,2
DA:245,3
DA:248,1
DA:249,1
DA:250,1
DA:251,1
DA:252,1
DA:254,0
DA:256,1
DA:259,1
DA:260,1
DA:261,1
DA:262,1
DA:263,1
DA:264,1
DA:266,1
DA:268,0
DA:270,1
DA:273,1
DA:274,1
DA:276,1
DA:277,1
DA:279,1
DA:280,1
DA:281,1
DA:282,1
DA:285,1
DA:286,1
DA:289,1
DA:290,1
DA:291,1
DA:292,1
DA:293,1
DA:294,1
DA:295,1
DA:296,1
DA:297,1
DA:298,1
DA:299,1
DA:300,1
DA:301,1
DA:302,1
DA:305,1
DA:306,1
DA:307,1
DA:308,1
DA:311,1
DA:312,1
DA:313,1
DA:314,1
DA:317,1
DA:318,1
DA:319,1
DA:320,1
DA:323,1
DA:324,1
DA:325,1
DA:326,1
DA:345,0
DA:346,0
DA:347,0
DA:348,0
DA:349,0
DA:350,0
DA:351,0
DA:352,0
DA:353,0
DA:355,0
DA:357,0
DA:358,0
DA:359,0
DA:360,0
DA:361,0
DA:362,0
DA:364,0
DA:366,0
DA:367,0
DA:368,0
DA:369,0
DA:370,0
DA:371,0
DA:373,0
DA:375,0
DA:376,0
DA:377,0
DA:378,0
DA:379,0
DA:380,0
DA:382,0
DA:384,0
DA:385,0
DA:386,0
DA:387,0
DA:388,0
DA:389,0
DA:391,0
DA:393,0
DA:394,0
DA:395,0
DA:396,0
DA:397,0
DA:398,0
DA:400,0
DA:402,0
DA:403,0
DA:404,0
DA:405,0
DA:406,0
DA:407,0
DA:409,0
DA:411,0
DA:412,0
DA:413,0
DA:417,3
DA:418,3
DA:419,3
DA:420,1
DA:421,2
DA:423,2
DA:424,2
DA:425,2
DA:426,2
DA:427,1
DA:428,0
DA:429,0
DA:432,2
DA:433,2
DA:434,2
DA:435,2
DA:436,2
DA:437,3
DA:445,1
DA:446,1
DA:447,1
DA:448,1
DA:449,1
DA:450,1
DA:451,1
DA:454,1
DA:455,1
DA:456,1
DA:457,1
DA:458,1
DA:459,1
DA:460,1
DA:461,1
DA:464,1
DA:465,1
DA:466,1
DA:469,1
DA:470,1
DA:471,1
DA:472,1
DA:473,1
DA:476,1
DA:477,1
DA:478,1
DA:479,1
DA:480,1
DA:481,1
DA:482,1
DA:483,1
DA:484,1
DA:486,1
DA:487,1
DA:488,1
DA:491,1
DA:492,1
DA:493,1
DA:494,1
DA:495,1
DA:496,1
DA:499,1
DA:500,1
DA:501,1
DA:502,1
DA:504,1
DA:505,1
DA:506,1
DA:508,1
DA:509,1
DA:512,1
DA:513,1
DA:514,1
DA:516,1
DA:517,1
DA:518,1
DA:519,1
DA:520,1
DA:523,1
DA:524,1
DA:525,1
DA:526,1
DA:527,1
DA:528,1
DA:530,1
DA:531,1
DA:532,1
DA:533,1
BRF:0
BRH:0
LF:346
LH:239
end_of_record
SF:/Users/r/git/mcp-loxone-seperation/pulseengine-mcp/mcp-security-middleware/src/error.rs
FN:98,_RINvMNtCskktBmG9IcvD_35pulseengine_mcp_security_middleware5errorNtB3_13SecurityError3jwtpEB5_
FN:83,_RINvMNtCskktBmG9IcvD_35pulseengine_mcp_security_middleware5errorNtB3_13SecurityError4authpEB5_
FN:113,_RINvMNtCskktBmG9IcvD_35pulseengine_mcp_security_middleware5errorNtB3_13SecurityError4httppEB5_
FN:88,_RINvMNtCskktBmG9IcvD_35pulseengine_mcp_security_middleware5errorNtB3_13SecurityError5authzpEB5_
FN:108,_RINvMNtCskktBmG9IcvD_35pulseengine_mcp_security_middleware5errorNtB3_13SecurityError6cryptopEB5_
FN:103,_RINvMNtCskktBmG9IcvD_35pulseengine_mcp_security_middleware5errorNtB3_13SecurityError6randompEB5_
FN:118,_RINvMNtCskktBmG9IcvD_35pulseengine_mcp_security_middleware5errorNtB3_13SecurityError8internalpEB5_
FN:93,_RINvMNtCskktBmG9IcvD_35pulseengine_mcp_security_middleware5errorNtB3_13SecurityError13invalid_tokenReEB5_
FN:78,_RINvMNtCskktBmG9IcvD_35pulseengine_mcp_security_middleware5errorNtB3_13SecurityError6configNtNtCs7fnLZwG9eJV_5alloc6string6StringEB5_
FN:78,_RINvMNtCskktBmG9IcvD_35pulseengine_mcp_security_middleware5errorNtB3_13SecurityError6configReEB5_
FN:125,_RNvXs_NtCskktBmG9IcvD_35pulseengine_mcp_security_middleware5errorNtB4_13SecurityErrorINtNtCsd2KPTObkMr_4core7convert4FromNtNtCsb6o9RoxCfT0_12jsonwebtoken6errors5ErrorE4from
FNDA:0,_RINvMNtCskktBmG9IcvD_35pulseengine_mcp_security_middleware5errorNtB3_13SecurityError3jwtpEB5_
FNDA:0,_RINvMNtCskktBmG9IcvD_35pulseengine_mcp_security_middleware5errorNtB3_13SecurityError4authpEB5_
FNDA:0,_RINvMNtCskktBmG9IcvD_35pulseengine_mcp_security_middleware5errorNtB3_13SecurityError4httppEB5_
FNDA:0,_RINvMNtCskktBmG9IcvD_35pulseengine_mcp_security_middleware5errorNtB3_13SecurityError5authzpEB5_
FNDA:0,_RINvMNtCskktBmG9IcvD_35pulseengine_mcp_security_middleware5errorNtB3_13SecurityError6cryptopEB5_
FNDA:0,_RINvMNtCskktBmG9IcvD_35pulseengine_mcp_security_middleware5errorNtB3_13SecurityError6randompEB5_
FNDA:0,_RINvMNtCskktBmG9IcvD_35pulseengine_mcp_security_middleware5errorNtB3_13SecurityError8internalpEB5_
FNDA:11,_RINvMNtCskktBmG9IcvD_35pulseengine_mcp_security_middleware5errorNtB3_13SecurityError13invalid_tokenReEB5_
FNDA:2,_RINvMNtCskktBmG9IcvD_35pulseengine_mcp_security_middleware5errorNtB3_13SecurityError6configNtNtCs7fnLZwG9eJV_5alloc6string6StringEB5_
FNDA:3,_RINvMNtCskktBmG9IcvD_35pulseengine_mcp_security_middleware5errorNtB3_13SecurityError6configReEB5_
FNDA:0,_RNvXs_NtCskktBmG9IcvD_35pulseengine_mcp_security_middleware5errorNtB4_13SecurityErrorINtNtCsd2KPTObkMr_4core7convert4FromNtNtCsb6o9RoxCfT0_12jsonwebtoken6errors5ErrorE4from
FNF:10
FNH:2
DA:78,5
DA:79,5
DA:80,5
DA:83,0
DA:84,0
DA:85,0
DA:88,0
DA:89,0
DA:90,0
DA:93,11
DA:94,11
DA:95,11
DA:98,0
DA:99,0
DA:100,0
DA:103,0
DA:104,0
DA:105,0
DA:108,0
DA:109,0
DA:110,0
DA:113,0
DA:114,0
DA:115,0
DA:118,0
DA:119,0
DA:120,0
DA:125,0
DA:128,0
DA:129,0
DA:130,0
DA:132,0
DA:135,0
DA:138,0
DA:140,0
DA:142,0
BRF:0
BRH:0
LF:36
LH:6
end_of_record
SF:/Users/r/git/mcp-loxone-seperation/pulseengine-mcp/mcp-security-middleware/src/lib.rs
FN:115,_RNvCskktBmG9IcvD_35pulseengine_mcp_security_middleware12dev_security
FN:146,_RNvCskktBmG9IcvD_35pulseengine_mcp_security_middleware12env_security
FN:130,_RNvCskktBmG9IcvD_35pulseengine_mcp_security_middleware13prod_security
FN:220,_RNvNtCskktBmG9IcvD_35pulseengine_mcp_security_middleware5testss_19test_module_exports
FN:167,_RNvNtCskktBmG9IcvD_35pulseengine_mcp_security_middleware5testss_19test_version_format
FN:210,_RNvNtCskktBmG9IcvD_35pulseengine_mcp_security_middleware5testss_21test_version_constant
FN:155,_RNvNtCskktBmG9IcvD_35pulseengine_mcp_security_middleware5testss_26test_dev_security_creation
FN:161,_RNvNtCskktBmG9IcvD_35pulseengine_mcp_security_middleware5testss_27test_prod_security_creation
FN:194,_RNvNtCskktBmG9IcvD_35pulseengine_mcp_security_middleware5testss_37test_env_security_with_valid_profiles
FN:176,_RNvNtCskktBmG9IcvD_35pulseengine_mcp_security_middleware5testss_38test_env_security_with_invalid_profile
FN:170,_RNCNvNtCskktBmG9IcvD_35pulseengine_mcp_security_middleware5testss_19test_version_format0B5_
FNDA:2,_RNvCskktBmG9IcvD_35pulseengine_mcp_security_middleware12dev_security
FNDA:4,_RNvCskktBmG9IcvD_35pulseengine_mcp_security_middleware12env_security
FNDA:2,_RNvCskktBmG9IcvD_35pulseengine_mcp_security_middleware13prod_security
FNDA:1,_RNvNtCskktBmG9IcvD_35pulseengine_mcp_security_middleware5testss_19test_module_exports
FNDA:1,_RNvNtCskktBmG9IcvD_35pulseengine_mcp_security_middleware5testss_19test_version_format
FNDA:1,_RNvNtCskktBmG9IcvD_35pulseengine_mcp_security_middleware5testss_21test_version_constant
FNDA:1,_RNvNtCskktBmG9IcvD_35pulseengine_mcp_security_middleware5testss_26test_dev_security_creation
FNDA:1,_RNvNtCskktBmG9IcvD_35pulseengine_mcp_security_middleware5testss_27test_prod_security_creation
FNDA:1,_RNvNtCskktBmG9IcvD_35pulseengine_mcp_security_middleware5testss_37test_env_security_with_valid_profiles
FNDA:1,_RNvNtCskktBmG9IcvD_35pulseengine_mcp_security_middleware5testss_38test_env_security_with_invalid_profile
FNDA:1,_RNCNvNtCskktBmG9IcvD_35pulseengine_mcp_security_middleware5testss_19test_version_format0B5_
FNF:11
FNH:11
DA:115,2
DA:116,2
DA:117,2
DA:130,2
DA:131,2
DA:132,2
DA:146,4
DA:147,4
DA:148,4
DA:155,1
DA:156,1
DA:157,1
DA:158,1
DA:161,1
DA:162,1
DA:163,1
DA:164,1
DA:167,1
DA:169,1
DA:170,1
DA:171,0
DA:173,1
DA:176,1
DA:180,1
DA:181,1
DA:182,1
DA:184,1
DA:185,1
DA:188,1
DA:189,1
DA:190,1
DA:191,1
DA:194,1
DA:197,4
DA:198,3
DA:199,3
DA:200,3
DA:201,3
DA:202,3
DA:203,3
DA:204,3
DA:205,3
DA:207,1
DA:210,1
DA:212,1
DA:213,1
DA:214,1
DA:215,0
DA:217,1
DA:220,1
DA:222,1
DA:223,1
DA:227,1
DA:228,1
DA:229,1
DA:230,1
BRF:0
BRH:0
LF:57
LH:55
end_of_record
SF:/Users/r/git/mcp-loxone-seperation/pulseengine-mcp/mcp-security-middleware/src/middleware.rs
FN:180,_RNCNCNvMNtCskktBmG9IcvD_35pulseengine_mcp_security_middleware10middlewareNtB6_18SecurityMiddleware7process00B8_
FN:48,_RNCNvMNtCskktBmG9IcvD_35pulseengine_mcp_security_middleware10middlewareNtB4_18SecurityMiddleware12authenticate0B6_
FN:106,_RNCNvMNtCskktBmG9IcvD_35pulseengine_mcp_security_middleware10middlewareNtB4_18SecurityMiddleware7process0B6_
FN:397,_RNCNvMs_NtCskktBmG9IcvD_35pulseengine_mcp_security_middleware10middlewareNtB6_11RateLimiter19cleanup_old_entries0B8_
FN:498,_RNCNCNCNvNtNtCskktBmG9IcvD_35pulseengine_mcp_security_middleware10middleware5testss_27test_development_middleware000Bb_
FN:496,_RNCNCNvNtNtCskktBmG9IcvD_35pulseengine_mcp_security_middleware10middleware5testss_27test_development_middleware00B9_
FN:485,_RNCNvNtNtCskktBmG9IcvD_35pulseengine_mcp_security_middleware10middleware5tests12test_handler0B7_
FN:490,_RNCNvNtNtCskktBmG9IcvD_35pulseengine_mcp_security_middleware10middleware5testss_27test_development_middleware0B7_
FN:437,_RNCNCNCNvNtCskktBmG9IcvD_35pulseengine_mcp_security_middleware10middleware19mcp_auth_middleware000B9_
FN:457,_RNCNCNCNvNtCskktBmG9IcvD_35pulseengine_mcp_security_middleware10middleware25mcp_rate_limit_middleware000B9_
FN:435,_RNCNCNvNtCskktBmG9IcvD_35pulseengine_mcp_security_middleware10middleware19mcp_auth_middleware00B7_
FN:455,_RNCNCNvNtCskktBmG9IcvD_35pulseengine_mcp_security_middleware10middleware25mcp_rate_limit_middleware00B7_
FN:434,_RNCNvNtCskktBmG9IcvD_35pulseengine_mcp_security_middleware10middleware19mcp_auth_middleware0B5_
FN:449,_RNCNvNtCskktBmG9IcvD_35pulseengine_mcp_security_middleware10middleware25mcp_rate_limit_middleware0B5_
FN:427,_RNvNtCskktBmG9IcvD_35pulseengine_mcp_security_middleware10middleware19mcp_auth_middleware
FN:442,_RNvNtCskktBmG9IcvD_35pulseengine_mcp_security_middleware10middleware25mcp_rate_limit_middleware
FN:485,_RNvNtNtCskktBmG9IcvD_35pulseengine_mcp_security_middleware10middleware5tests12test_handler
FN:558,_RNvNtNtCskktBmG9IcvD_35pulseengine_mcp_security_middleware10middleware5testss_17test_rate_limiter
FN:512,_RNvNtNtCskktBmG9IcvD_35pulseengine_mcp_security_middleware10middleware5testss_20test_extract_api_key
FN:575,_RNvNtNtCskktBmG9IcvD_35pulseengine_mcp_security_middleware10middleware5testss_21test_is_https_request
FN:539,_RNvNtNtCskktBmG9IcvD_35pulseengine_mcp_security_middleware10middleware5testss_25test_extract_bearer_token
FN:490,_RNvNtNtCskktBmG9IcvD_35pulseengine_mcp_security_middleware10middleware5testss_27test_development_middleware
FN:601,_RNvNtNtCskktBmG9IcvD_35pulseengine_mcp_security_middleware10middleware5testss_28test_rate_limiter_edge_cases
FN:642,_RNvNtNtCskktBmG9IcvD_35pulseengine_mcp_security_middleware10middleware5testss_31test_extract_api_key_edge_cases
FN:669,_RNvNtNtCskktBmG9IcvD_35pulseengine_mcp_security_middleware10middleware5testss_32test_is_https_request_edge_cases
FN:614,_RNvNtNtCskktBmG9IcvD_35pulseengine_mcp_security_middleware10middleware5testss_36test_extract_bearer_token_edge_cases
FN:48,_RNvMNtCskktBmG9IcvD_35pulseengine_mcp_security_middleware10middlewareNtB2_18SecurityMiddleware12authenticate
FN:92,_RNvMNtCskktBmG9IcvD_35pulseengine_mcp_security_middleware10middlewareNtB2_18SecurityMiddleware16check_rate_limit
FN:29,_RNvMNtCskktBmG9IcvD_35pulseengine_mcp_security_middleware10middlewareNtB2_18SecurityMiddleware3new
FN:106,_RNvMNtCskktBmG9IcvD_35pulseengine_mcp_security_middleware10middlewareNtB2_18SecurityMiddleware7process
FN:365,_RNvMs_NtCskktBmG9IcvD_35pulseengine_mcp_security_middleware10middlewareNtB4_11RateLimiter13allow_request
FN:396,_RNvMs_NtCskktBmG9IcvD_35pulseengine_mcp_security_middleware10middlewareNtB4_11RateLimiter19cleanup_old_entries
FN:357,_RNvMs_NtCskktBmG9IcvD_35pulseengine_mcp_security_middleware10middlewareNtB4_11RateLimiter3new
FN:203,_RNvNtCskktBmG9IcvD_35pulseengine_mcp_security_middleware10middleware15extract_api_key
FN:269,_RNvNtCskktBmG9IcvD_35pulseengine_mcp_security_middleware10middleware16is_https_request
FN:245,_RNvNtCskktBmG9IcvD_35pulseengine_mcp_security_middleware10middleware17extract_client_id
FN:303,_RNvNtCskktBmG9IcvD_35pulseengine_mcp_security_middleware10middleware20add_security_headers
FN:229,_RNvNtCskktBmG9IcvD_35pulseengine_mcp_security_middleware10middleware20extract_bearer_token
FNDA:0,_RNCNCNvMNtCskktBmG9IcvD_35pulseengine_mcp_security_middleware10middlewareNtB6_18SecurityMiddleware7process00B8_
FNDA:1,_RNCNvMNtCskktBmG9IcvD_35pulseengine_mcp_security_middleware10middlewareNtB4_18SecurityMiddleware12authenticate0B6_
FNDA:1,_RNCNvMNtCskktBmG9IcvD_35pulseengine_mcp_security_middleware10middlewareNtB4_18SecurityMiddleware7process0B6_
FNDA:0,_RNCNvMs_NtCskktBmG9IcvD_35pulseengine_mcp_security_middleware10middlewareNtB6_11RateLimiter19cleanup_old_entries0B8_
FNDA:1,_RNCNCNCNvNtNtCskktBmG9IcvD_35pulseengine_mcp_security_middleware10middleware5testss_27test_development_middleware000Bb_
FNDA:1,_RNCNCNvNtNtCskktBmG9IcvD_35pulseengine_mcp_security_middleware10middleware5testss_27test_development_middleware00B9_
FNDA:1,_RNCNvNtNtCskktBmG9IcvD_35pulseengine_mcp_security_middleware10middleware5tests12test_handler0B7_
FNDA:1,_RNCNvNtNtCskktBmG9IcvD_35pulseengine_mcp_security_middleware10middleware5testss_27test_development_middleware0B7_
FNDA:0,_RNCNCNCNvNtCskktBmG9IcvD_35pulseengine_mcp_security_middleware10middleware19mcp_auth_middleware000B9_
FNDA:0,_RNCNCNCNvNtCskktBmG9IcvD_35pulseengine_mcp_security_middleware10middleware25mcp_rate_limit_middleware000B9_
FNDA:0,_RNCNCNvNtCskktBmG9IcvD_35pulseengine_mcp_security_middleware10middleware19mcp_auth_middleware00B7_
FNDA:0,_RNCNCNvNtCskktBmG9IcvD_35pulseengine_mcp_security_middleware10middleware25mcp_rate_limit_middleware00B7_
FNDA:0,_RNCNvNtCskktBmG9IcvD_35pulseengine_mcp_security_middleware10middleware19mcp_auth_middleware0B5_
FNDA:0,_RNCNvNtCskktBmG9IcvD_35pulseengine_mcp_security_middleware10middleware25mcp_rate_limit_middleware0B5_
FNDA:0,_RNvNtCskktBmG9IcvD_35pulseengine_mcp_security_middleware10middleware19mcp_auth_middleware
FNDA:0,_RNvNtCskktBmG9IcvD_35pulseengine_mcp_security_middleware10middleware25mcp_rate_limit_middleware
FNDA:1,_RNvNtNtCskktBmG9IcvD_35pulseengine_mcp_security_middleware10middleware5tests12test_handler
FNDA:1,_RNvNtNtCskktBmG9IcvD_35pulseengine_mcp_security_middleware10middleware5testss_17test_rate_limiter
FNDA:1,_RNvNtNtCskktBmG9IcvD_35pulseengine_mcp_security_middleware10middleware5testss_20test_extract_api_key
FNDA:1,_RNvNtNtCskktBmG9IcvD_35pulseengine_mcp_security_middleware10middleware5testss_21test_is_https_request
FNDA:1,_RNvNtNtCskktBmG9IcvD_35pulseengine_mcp_security_middleware10middleware5testss_25test_extract_bearer_token
FNDA:1,_RNvNtNtCskktBmG9IcvD_35pulseengine_mcp_security_middleware10middleware5testss_27test_development_middleware
FNDA:1,_RNvNtNtCskktBmG9IcvD_35pulseengine_mcp_security_middleware10middleware5testss_28test_rate_limiter_edge_cases
FNDA:1,_RNvNtNtCskktBmG9IcvD_35pulseengine_mcp_security_middleware10middleware5testss_31test_extract_api_key_edge_cases
FNDA:1,_RNvNtNtCskktBmG9IcvD_35pulseengine_mcp_security_middleware10middleware5testss_32test_is_https_request_edge_cases
FNDA:1,_RNvNtNtCskktBmG9IcvD_35pulseengine_mcp_security_middleware10middleware5testss_36test_extract_bearer_token_edge_cases
FNDA:1,_RNvMNtCskktBmG9IcvD_35pulseengine_mcp_security_middleware10middlewareNtB2_18SecurityMiddleware12authenticate
FNDA:1,_RNvMNtCskktBmG9IcvD_35pulseengine_mcp_security_middleware10middlewareNtB2_18SecurityMiddleware16check_rate_limit
FNDA:1,_RNvMNtCskktBmG9IcvD_35pulseengine_mcp_security_middleware10middlewareNtB2_18SecurityMiddleware3new
FNDA:1,_RNvMNtCskktBmG9IcvD_35pulseengine_mcp_security_middleware10middlewareNtB2_18SecurityMiddleware7process
FNDA:7,_RNvMs_NtCskktBmG9IcvD_35pulseengine_mcp_security_middleware10middlewareNtB4_11RateLimiter13allow_request
FNDA:0,_RNvMs_NtCskktBmG9IcvD_35pulseengine_mcp_security_middleware10middlewareNtB4_11RateLimiter19cleanup_old_entries
FNDA:3,_RNvMs_NtCskktBmG9IcvD_35pulseengine_mcp_security_middleware10middlewareNtB4_11RateLimiter3new
FNDA:6,_RNvNtCskktBmG9IcvD_35pulseengine_mcp_security_middleware10middleware15extract_api_key
FNDA:7,_RNvNtCskktBmG9IcvD_35pulseengine_mcp_security_middleware10middleware16is_https_request
FNDA:1,_RNvNtCskktBmG9IcvD_35pulseengine_mcp_security_middleware10middleware17extract_client_id
FNDA:1,_RNvNtCskktBmG9IcvD_35pulseengine_mcp_security_middleware10middleware20add_security_headers
FNDA:5,_RNvNtCskktBmG9IcvD_35pulseengine_mcp_security_middleware10middleware20extract_bearer_token
FNF:38
FNH:27
DA:29,1
DA:30,1
DA:31,1
DA:32,1
DA:33,1
DA:34,1
DA:35,1
DA:36,1
DA:39,1
DA:40,1
DA:41,1
DA:42,1
DA:43,1
DA:44,1
DA:45,1
DA:48,1
DA:50,1
DA:51,1
DA:52,0
DA:55,0
DA:56,0
DA:57,0
DA:58,0
DA:59,0
DA:60,0
DA:61,0
DA:62,0
DA:64,0
DA:65,0
DA:68,0
DA:69,0
DA:72,0
DA:73,0
DA:74,0
DA:75,0
DA:76,0
DA:77,0
DA:78,0
DA:80,0
DA:81,0
DA:84,0
DA:85,0
DA:88,0
DA:89,1
DA:92,1
DA:93,1
DA:94,1
DA:95,0
DA:97,0
DA:98,0
DA:99,0
DA:100,0
DA:102,0
DA:103,1
DA:106,1
DA:107,1
DA:108,1
DA:111,1
DA:113,1
DA:114,0
DA:119,1
DA:120,0
DA:121,0
DA:122,1
DA:125,1
DA:126,1
DA:128,0
DA:129,0
DA:130,0
DA:133,0
DA:135,0
DA:138,0
DA:139,0
DA:140,0
DA:141,0
DA:142,0
DA:143,0
DA:144,0
DA:150,1
DA:151,0
DA:152,0
DA:153,1
DA:156,1
DA:157,1
DA:158,0
DA:159,0
DA:160,0
DA:163,1
DA:166,1
DA:167,1
DA:168,1
DA:171,1
DA:174,1
DA:177,1
DA:179,1
DA:180,1
DA:184,1
DA:185,1
DA:186,1
DA:187,0
DA:190,0
DA:192,0
DA:194,1
DA:195,1
DA:203,6
DA:205,6
DA:206,3
DA:207,3
DA:208,1
DA:209,2
DA:210,2
DA:211,2
DA:212,2
DA:213,0
DA:214,0
DA:215,0
DA:216,3
DA:219,3
DA:220,3
DA:221,3
DA:222,0
DA:223,0
DA:225,0
DA:226,6
DA:229,5
DA:230,5
DA:231,5
DA:232,4
DA:234,4
DA:235,3
DA:236,1
DA:237,0
DA:238,1
DA:239,0
DA:241,2
DA:242,5
DA:245,1
DA:247,1
DA:249,1
DA:250,0
DA:251,0
DA:252,0
DA:253,0
DA:254,0
DA:255,1
DA:257,1
DA:258,0
DA:259,0
DA:260,0
DA:261,1
DA:265,1
DA:266,1
DA:269,7
DA:271,7
DA:272,1
DA:273,6
DA:276,6
DA:278,6
DA:279,2
DA:280,2
DA:281,0
DA:282,4
DA:284,4
DA:285,0
DA:286,0
DA:287,0
DA:288,4
DA:291,4
DA:292,2
DA:293,2
DA:294,2
DA:295,0
DA:296,0
DA:297,2
DA:299,2
DA:300,7
DA:303,1
DA:304,1
DA:307,1
DA:309,1
DA:313,1
DA:316,1
DA:318,1
DA:322,1
DA:324,1
DA:328,1
DA:329,0
DA:330,0
DA:331,0
DA:332,0
DA:333,1
DA:336,1
DA:338,1
DA:340,1
DA:357,3
DA:358,3
DA:359,3
DA:360,3
DA:361,3
DA:362,3
DA:363,3
DA:365,7
DA:366,7
DA:369,7
DA:370,0
DA:371,7
DA:373,7
DA:374,7
DA:375,7
DA:376,7
DA:377,7
DA:378,7
DA:379,7
DA:382,7
DA:383,0
DA:384,0
DA:385,7
DA:388,7
DA:389,2
DA:391,5
DA:392,5
DA:394,7
DA:396,0
DA:397,0
DA:398,0
DA:399,0
DA:400,0
DA:427,0
DA:428,0
DA:429,0
DA:430,0
DA:431,0
DA:432,0
DA:433,0
DA:434,0
DA:435,0
DA:436,0
DA:437,0
DA:438,0
DA:439,0
DA:442,0
DA:443,0
DA:444,0
DA:445,0
DA:446,0
DA:447,0
DA:448,0
DA:449,0
DA:450,0
DA:451,0
DA:452,0
DA:455,0
DA:456,0
DA:457,0
DA:458,0
DA:461,0
DA:462,0
DA:463,0
DA:464,0
DA:467,0
DA:468,0
DA:469,0
DA:470,0
DA:471,0
DA:485,1
DA:486,1
DA:487,1
DA:490,1
DA:491,1
DA:492,1
DA:494,1
DA:495,1
DA:496,1
DA:497,1
DA:498,1
DA:499,1
DA:501,1
DA:502,1
DA:503,1
DA:504,1
DA:505,1
DA:507,1
DA:508,1
DA:509,1
DA:512,1
DA:514,1
DA:515,1
DA:517,1
DA:519,1
DA:522,1
DA:523,1
DA:525,1
DA:527,1
DA:528,1
DA:529,1
DA:533,1
DA:534,1
DA:535,1
DA:536,1
DA:539,1
DA:540,1
DA:543,1
DA:545,1
DA:547,1
DA:550,1
DA:552,1
DA:554,1
DA:555,1
DA:558,1
DA:559,1
DA:562,1
DA:565,1
DA:568,1
DA:571,1
DA:572,1
DA:575,1
DA:577,1
DA:578,1
DA:579,1
DA:580,1
DA:581,1
DA:584,1
DA:585,1
DA:586,1
DA:587,1
DA:588,1
DA:589,1
DA:592,1
DA:593,1
DA:594,1
DA:595,1
DA:596,1
DA:597,1
DA:598,1
DA:601,1
DA:602,1
DA:605,1
DA:606,1
DA:609,1
DA:610,1
DA:611,1
DA:614,1
DA:617,1
DA:620,1
DA:621,1
DA:624,1
DA:625,1
DA:627,1
DA:629,1
DA:630,1
DA:631,1
DA:635,1
DA:636,1
DA:637,1
DA:638,1
DA:639,1
DA:642,1
DA:645,1
DA:648,1
DA:649,1
DA:652,1
DA:653,1
DA:654,1
DA:657,1
DA:658,1
DA:660,1
DA:662,1
DA:663,1
DA:664,1
DA:666,1
DA:669,1
DA:671,1
DA:672,1
DA:673,1
DA:674,1
DA:675,1
DA:678,1
DA:679,1
DA:680,1
DA:681,1
DA:682,1
DA:683,1
DA:686,1
DA:687,1
DA:688,1
DA:689,1
DA:690,1
DA:691,1
DA:694,1
DA:695,1
DA:696,1
BRF:0
BRH:0
LF:403
LH:272
end_of_record
SF:/Users/r/git/mcp-loxone-seperation/pulseengine-mcp/mcp-security-middleware/src/profiles.rs
FN:460,_RNvNtNtCskktBmG9IcvD_35pulseengine_mcp_security_middleware8profiles5testss_17test_cors_configs
FN:427,_RNvNtNtCskktBmG9IcvD_35pulseengine_mcp_security_middleware8profiles5testss_20test_staging_profile
FN:438,_RNvNtNtCskktBmG9IcvD_35pulseengine_mcp_security_middleware8profiles5testss_23test_production_profile
FN:449,_RNvNtNtCskktBmG9IcvD_35pulseengine_mcp_security_middleware8profiles5testss_23test_rate_limit_configs
FN:417,_RNvNtNtCskktBmG9IcvD_35pulseengine_mcp_security_middleware8profiles5testss_24test_development_profile
FN:410,_RNvNtNtCskktBmG9IcvD_35pulseengine_mcp_security_middleware8profiles5testss_29test_security_profile_display
FN:388,_RNvNtNtCskktBmG9IcvD_35pulseengine_mcp_security_middleware8profiles5testss_29test_security_profile_parsing
FN:479,_RNvNtNtCskktBmG9IcvD_35pulseengine_mcp_security_middleware8profiles5testss_33test_security_settings_validation
FN:499,_RNvNtNtCskktBmG9IcvD_35pulseengine_mcp_security_middleware8profiles5testss_35test_security_settings_for_profiles
FN:40,_RNvMNtCskktBmG9IcvD_35pulseengine_mcp_security_middleware8profilesNtB2_15SecurityProfile6as_str
FN:27,_RNvMNtCskktBmG9IcvD_35pulseengine_mcp_security_middleware8profilesNtB2_15SecurityProfile8from_str
FN:79,_RNvMs1_NtCskktBmG9IcvD_35pulseengine_mcp_security_middleware8profilesNtB5_15RateLimitConfig10permissive
FN:97,_RNvMs1_NtCskktBmG9IcvD_35pulseengine_mcp_security_middleware8profilesNtB5_15RateLimitConfig6strict
FN:88,_RNvMs1_NtCskktBmG9IcvD_35pulseengine_mcp_security_middleware8profilesNtB5_15RateLimitConfig8moderate
FN:127,_RNvMs2_NtCskktBmG9IcvD_35pulseengine_mcp_security_middleware8profilesNtB5_10CorsConfig10permissive
FN:144,_RNvMs2_NtCskktBmG9IcvD_35pulseengine_mcp_security_middleware8profilesNtB5_10CorsConfig14localhost_only
FN:166,_RNvMs2_NtCskktBmG9IcvD_35pulseengine_mcp_security_middleware8profilesNtB5_10CorsConfig6strict
FN:182,_RNvMs3_NtCskktBmG9IcvD_35pulseengine_mcp_security_middleware8profilesNtB5_18DevelopmentProfile17security_settings
FN:213,_RNvMs4_NtCskktBmG9IcvD_35pulseengine_mcp_security_middleware8profilesNtB5_14StagingProfile17security_settings
FN:245,_RNvMs5_NtCskktBmG9IcvD_35pulseengine_mcp_security_middleware8profilesNtB5_17ProductionProfile17security_settings
FN:310,_RNvMs6_NtCskktBmG9IcvD_35pulseengine_mcp_security_middleware8profilesNtB5_16SecuritySettings11for_profile
FN:354,_RNvMs6_NtCskktBmG9IcvD_35pulseengine_mcp_security_middleware8profilesNtB5_16SecuritySettings26security_level_description
FN:320,_RNvMs6_NtCskktBmG9IcvD_35pulseengine_mcp_security_middleware8profilesNtB5_16SecuritySettings8validate
FN:59,_RNvXs0_NtCskktBmG9IcvD_35pulseengine_mcp_security_middleware8profilesNtB5_15SecurityProfileNtNtCsd2KPTObkMr_4core3fmt7Display3fmt
FN:368,_RNvXs7_NtCskktBmG9IcvD_35pulseengine_mcp_security_middleware8profilesNtB5_16SecuritySettingsNtNtCsd2KPTObkMr_4core7default7Default7default
FN:53,_RNvXs_NtCskktBmG9IcvD_35pulseengine_mcp_security_middleware8profilesNtB4_15SecurityProfileNtNtNtCsd2KPTObkMr_4core3str6traits7FromStr8from_str
FN:196,_RNvMs3_NtCskktBmG9IcvD_35pulseengine_mcp_security_middleware8profilesNtB5_18DevelopmentProfile20recommended_env_vars
FN:227,_RNvMs4_NtCskktBmG9IcvD_35pulseengine_mcp_security_middleware8profilesNtB5_14StagingProfile20recommended_env_vars
FN:259,_RNvMs5_NtCskktBmG9IcvD_35pulseengine_mcp_security_middleware8profilesNtB5_17ProductionProfile17required_env_vars
FN:269,_RNvMs5_NtCskktBmG9IcvD_35pulseengine_mcp_security_middleware8profilesNtB5_17ProductionProfile20recommended_env_vars
FNDA:1,_RNvNtNtCskktBmG9IcvD_35pulseengine_mcp_security_middleware8profiles5testss_17test_cors_configs
FNDA:1,_RNvNtNtCskktBmG9IcvD_35pulseengine_mcp_security_middleware8profiles5testss_20test_staging_profile
FNDA:1,_RNvNtNtCskktBmG9IcvD_35pulseengine_mcp_security_middleware8profiles5testss_23test_production_profile
FNDA:1,_RNvNtNtCskktBmG9IcvD_35pulseengine_mcp_security_middleware8profiles5testss_23test_rate_limit_configs
FNDA:1,_RNvNtNtCskktBmG9IcvD_35pulseengine_mcp_security_middleware8profiles5testss_24test_development_profile
FNDA:1,_RNvNtNtCskktBmG9IcvD_35pulseengine_mcp_security_middleware8profiles5testss_29test_security_profile_display
FNDA:1,_RNvNtNtCskktBmG9IcvD_35pulseengine_mcp_security_middleware8profiles5testss_29test_security_profile_parsing
FNDA:1,_RNvNtNtCskktBmG9IcvD_35pulseengine_mcp_security_middleware8profiles5testss_33test_security_settings_validation
FNDA:1,_RNvNtNtCskktBmG9IcvD_35pulseengine_mcp_security_middleware8profiles5testss_35test_security_settings_for_profiles
FNDA:3,_RNvMNtCskktBmG9IcvD_35pulseengine_mcp_security_middleware8profilesNtB2_15SecurityProfile6as_str
FNDA:10,_RNvMNtCskktBmG9IcvD_35pulseengine_mcp_security_middleware8profilesNtB2_15SecurityProfile8from_str
FNDA:12,_RNvMs1_NtCskktBmG9IcvD_35pulseengine_mcp_security_middleware8profilesNtB5_15RateLimitConfig10permissive
FNDA:7,_RNvMs1_NtCskktBmG9IcvD_35pulseengine_mcp_security_middleware8profilesNtB5_15RateLimitConfig6strict
FNDA:3,_RNvMs1_NtCskktBmG9IcvD_35pulseengine_mcp_security_middleware8profilesNtB5_15RateLimitConfig8moderate
FNDA:12,_RNvMs2_NtCskktBmG9IcvD_35pulseengine_mcp_security_middleware8profilesNtB5_10CorsConfig10permissive
FNDA:3,_RNvMs2_NtCskktBmG9IcvD_35pulseengine_mcp_security_middleware8profilesNtB5_10CorsConfig14localhost_only
FNDA:8,_RNvMs2_NtCskktBmG9IcvD_35pulseengine_mcp_security_middleware8profilesNtB5_10CorsConfig6strict
FNDA:11,_RNvMs3_NtCskktBmG9IcvD_35pulseengine_mcp_security_middleware8profilesNtB5_18DevelopmentProfile17security_settings
FNDA:2,_RNvMs4_NtCskktBmG9IcvD_35pulseengine_mcp_security_middleware8profilesNtB5_14StagingProfile17security_settings
FNDA:6,_RNvMs5_NtCskktBmG9IcvD_35pulseengine_mcp_security_middleware8profilesNtB5_17ProductionProfile17security_settings
FNDA:16,_RNvMs6_NtCskktBmG9IcvD_35pulseengine_mcp_security_middleware8profilesNtB5_16SecuritySettings11for_profile
FNDA:1,_RNvMs6_NtCskktBmG9IcvD_35pulseengine_mcp_security_middleware8profilesNtB5_16SecuritySettings26security_level_description
FNDA:7,_RNvMs6_NtCskktBmG9IcvD_35pulseengine_mcp_security_middleware8profilesNtB5_16SecuritySettings8validate
FNDA:3,_RNvXs0_NtCskktBmG9IcvD_35pulseengine_mcp_security_middleware8profilesNtB5_15SecurityProfileNtNtCsd2KPTObkMr_4core3fmt7Display3fmt
FNDA:1,_RNvXs7_NtCskktBmG9IcvD_35pulseengine_mcp_security_middleware8profilesNtB5_16SecuritySettingsNtNtCsd2KPTObkMr_4core7default7Default7default
FNDA:5,_RNvXs_NtCskktBmG9IcvD_35pulseengine_mcp_security_middleware8profilesNtB4_15SecurityProfileNtNtNtCsd2KPTObkMr_4core3str6traits7FromStr8from_str
FNDA:0,_RNvMs3_NtCskktBmG9IcvD_35pulseengine_mcp_security_middleware8profilesNtB5_18DevelopmentProfile20recommended_env_vars
FNDA:0,_RNvMs4_NtCskktBmG9IcvD_35pulseengine_mcp_security_middleware8profilesNtB5_14StagingProfile20recommended_env_vars
FNDA:0,_RNvMs5_NtCskktBmG9IcvD_35pulseengine_mcp_security_middleware8profilesNtB5_17ProductionProfile17required_env_vars
FNDA:0,_RNvMs5_NtCskktBmG9IcvD_35pulseengine_mcp_security_middleware8profilesNtB5_17ProductionProfile20recommended_env_vars
FNF:30
FNH:26
DA:27,10
DA:28,10
DA:29,10
DA:30,6
DA:31,4
DA:32,2
DA:33,2
DA:34,2
DA:35,2
DA:37,10
DA:40,3
DA:41,3
DA:42,1
DA:43,1
DA:44,1
DA:45,0
DA:47,3
DA:53,5
DA:54,5
DA:55,5
DA:59,3
DA:60,3
DA:61,3
DA:79,12
DA:80,12
DA:81,12
DA:82,12
DA:83,12
DA:84,12
DA:85,12
DA:88,3
DA:89,3
DA:90,3
DA:91,3
DA:92,3
DA:93,3
DA:94,3
DA:97,7
DA:98,7
DA:99,7
DA:100,7
DA:101,7
DA:102,7
DA:103,7
DA:127,12
DA:128,12
DA:129,12
DA:130,12
DA:131,12
DA:132,12
DA:133,12
DA:134,12
DA:135,12
DA:136,12
DA:137,12
DA:138,12
DA:139,12
DA:140,12
DA:141,12
DA:144,3
DA:145,3
DA:146,3
DA:147,3
DA:148,3
DA:149,3
DA:150,3
DA:151,3
DA:152,3
DA:153,3
DA:154,3
DA:155,3
DA:156,3
DA:157,3
DA:158,3
DA:159,3
DA:160,3
DA:161,3
DA:162,3
DA:163,3
DA:166,8
DA:167,8
DA:168,8
DA:169,8
DA:170,8
DA:171,8
DA:172,8
DA:173,8
DA:174,8
DA:182,11
DA:183,11
DA:184,11
DA:185,11
DA:186,11
DA:187,11
DA:188,11
DA:189,11
DA:190,11
DA:191,11
DA:192,11
DA:193,11
DA:196,0
DA:197,0
DA:198,0
DA:199,0
DA:200,0
DA:201,0
DA:202,0
DA:203,0
DA:205,0
DA:213,2
DA:214,2
DA:215,2
DA:216,2
DA:217,2
DA:218,2
DA:219,2
DA:220,2
DA:221,2
DA:222,2
DA:223,2
DA:224,2
DA:227,0
DA:228,0
DA:229,0
DA:230,0
DA:231,0
DA:232,0
DA:233,0
DA:234,0
DA:235,0
DA:237,0
DA:245,6
DA:246,6
DA:247,6
DA:248,6
DA:249,6
DA:250,6
DA:251,6
DA:252,6
DA:253,6
DA:254,6
DA:255,6
DA:256,6
DA:259,0
DA:260,0
DA:261,0
DA:262,0
DA:263,0
DA:264,0
DA:266,0
DA:269,0
DA:270,0
DA:271,0
DA:272,0
DA:273,0
DA:274,0
DA:275,0
DA:277,0
DA:310,16
DA:311,16
DA:312,10
DA:313,1
DA:314,5
DA:315,0
DA:317,16
DA:320,7
DA:322,7
DA:324,1
DA:325,6
DA:327,6
DA:328,3
DA:329,1
DA:331,1
DA:332,1
DA:333,1
DA:334,5
DA:336,5
DA:338,0
DA:339,0
DA:341,5
DA:343,5
DA:345,1
DA:346,1
DA:347,1
DA:348,4
DA:350,4
DA:351,7
DA:354,1
DA:355,1
DA:356,1
DA:357,0
DA:358,0
DA:359,0
DA:360,0
DA:362,0
DA:364,1
DA:368,1
DA:370,1
DA:371,1
DA:372,1
DA:373,1
DA:374,1
DA:375,1
DA:376,1
DA:377,1
DA:378,1
DA:379,1
DA:380,1
DA:388,1
DA:389,1
DA:390,1
DA:393,1
DA:394,1
DA:397,1
DA:398,1
DA:401,1
DA:402,1
DA:406,1
DA:407,1
DA:410,1
DA:411,1
DA:412,1
DA:413,1
DA:414,1
DA:417,1
DA:418,1
DA:419,1
DA:420,1
DA:421,1
DA:422,1
DA:423,1
DA:424,1
DA:427,1
DA:428,1
DA:429,1
DA:430,1
DA:431,1
DA:432,1
DA:433,1
DA:434,1
DA:435,1
DA:438,1
DA:439,1
DA:440,1
DA:441,1
DA:442,1
DA:443,1
DA:444,1
DA:445,1
DA:446,1
DA:449,1
DA:450,1
DA:451,1
DA:452,1
DA:454,1
DA:455,1
DA:456,1
DA:457,1
DA:460,1
DA:461,1
DA:462,1
DA:463,1
DA:465,1
DA:466,1
DA:467,1
DA:468,1
DA:469,1
DA:470,1
DA:473,1
DA:474,1
DA:475,1
DA:476,1
DA:479,1
DA:480,1
DA:481,1
DA:484,1
DA:485,1
DA:486,1
DA:488,1
DA:489,1
DA:492,1
DA:493,1
DA:494,1
DA:495,1
DA:496,1
DA:499,1
DA:500,1
DA:501,1
DA:503,1
DA:504,1
DA:505,1
DA:506,1
BRF:0
BRH:0
LF:292
LH:249
end_of_record
SF:/Users/r/git/mcp-loxone-seperation/pulseengine-mcp/mcp-security-middleware/src/utils.rs
FN:16,_RNCNvMNtCskktBmG9IcvD_35pulseengine_mcp_security_middleware5utilsNtB4_12SecureRandom5bytes0B6_
FN:252,_RNvNtNtCskktBmG9IcvD_35pulseengine_mcp_security_middleware5utils5testss_18test_secure_random
FN:215,_RNvNtNtCskktBmG9IcvD_35pulseengine_mcp_security_middleware5utils5testss_19test_secure_compare
FN:160,_RNvNtNtCskktBmG9IcvD_35pulseengine_mcp_security_middleware5utils5testss_21test_generate_api_key
FN:243,_RNvNtNtCskktBmG9IcvD_35pulseengine_mcp_security_middleware5utils5testss_22test_current_timestamp
FN:177,_RNvNtNtCskktBmG9IcvD_35pulseengine_mcp_security_middleware5utils5testss_24test_generate_jwt_secret
FN:233,_RNvNtNtCskktBmG9IcvD_35pulseengine_mcp_security_middleware5utils5testss_26test_request_id_generation
FN:223,_RNvNtNtCskktBmG9IcvD_35pulseengine_mcp_security_middleware5utils5testss_26test_session_id_generation
FN:347,_RNvNtNtCskktBmG9IcvD_35pulseengine_mcp_security_middleware5utils5testss_26test_timestamp_consistency
FN:190,_RNvNtNtCskktBmG9IcvD_35pulseengine_mcp_security_middleware5utils5testss_28test_hash_and_verify_api_key
FN:203,_RNvNtNtCskktBmG9IcvD_35pulseengine_mcp_security_middleware5utils5testss_28test_validate_api_key_format
FN:269,_RNvNtNtCskktBmG9IcvD_35pulseengine_mcp_security_middleware5utils5testss_29test_secure_random_edge_cases
FN:332,_RNvNtNtCskktBmG9IcvD_35pulseengine_mcp_security_middleware5utils5testss_30test_secure_compare_edge_cases
FN:314,_RNvNtNtCskktBmG9IcvD_35pulseengine_mcp_security_middleware5utils5testss_32test_hash_and_verify_consistency
FN:286,_RNvNtNtCskktBmG9IcvD_35pulseengine_mcp_security_middleware5utils5testss_39test_validate_api_key_format_edge_cases
FN:29,_RNvMNtCskktBmG9IcvD_35pulseengine_mcp_security_middleware5utilsNtB2_12SecureRandom13base64_string
FN:35,_RNvMNtCskktBmG9IcvD_35pulseengine_mcp_security_middleware5utilsNtB2_12SecureRandom17base64_url_string
FN:14,_RNvMNtCskktBmG9IcvD_35pulseengine_mcp_security_middleware5utilsNtB2_12SecureRandom5bytes
FN:20,_RNvMNtCskktBmG9IcvD_35pulseengine_mcp_security_middleware5utilsNtB2_12SecureRandom6string
FN:79,_RNvNtCskktBmG9IcvD_35pulseengine_mcp_security_middleware5utils12hash_api_key
FN:142,_RNvNtCskktBmG9IcvD_35pulseengine_mcp_security_middleware5utils14secure_compare
FN:89,_RNvNtCskktBmG9IcvD_35pulseengine_mcp_security_middleware5utils14verify_api_key
FN:54,_RNvNtCskktBmG9IcvD_35pulseengine_mcp_security_middleware5utils16generate_api_key
FN:95,_RNvNtCskktBmG9IcvD_35pulseengine_mcp_security_middleware5utils17current_timestamp
FN:71,_RNvNtCskktBmG9IcvD_35pulseengine_mcp_security_middleware5utils19generate_jwt_secret
FN:137,_RNvNtCskktBmG9IcvD_35pulseengine_mcp_security_middleware5utils19generate_request_id
FN:132,_RNvNtCskktBmG9IcvD_35pulseengine_mcp_security_middleware5utils19generate_session_id
FN:103,_RNvNtCskktBmG9IcvD_35pulseengine_mcp_security_middleware5utils23validate_api_key_format
FNDA:1505,_RNCNvMNtCskktBmG9IcvD_35pulseengine_mcp_security_middleware5utilsNtB4_12SecureRandom5bytes0B6_
FNDA:1,_RNvNtNtCskktBmG9IcvD_35pulseengine_mcp_security_middleware5utils5testss_18test_secure_random
FNDA:1,_RNvNtNtCskktBmG9IcvD_35pulseengine_mcp_security_middleware5utils5testss_19test_secure_compare
FNDA:1,_RNvNtNtCskktBmG9IcvD_35pulseengine_mcp_security_middleware5utils5testss_21test_generate_api_key
FNDA:1,_RNvNtNtCskktBmG9IcvD_35pulseengine_mcp_security_middleware5utils5testss_22test_current_timestamp
FNDA:1,_RNvNtNtCskktBmG9IcvD_35pulseengine_mcp_security_middleware5utils5testss_24test_generate_jwt_secret
FNDA:1,_RNvNtNtCskktBmG9IcvD_35pulseengine_mcp_security_middleware5utils5testss_26test_request_id_generation
FNDA:1,_RNvNtNtCskktBmG9IcvD_35pulseengine_mcp_security_middleware5utils5testss_26test_session_id_generation
FNDA:1,_RNvNtNtCskktBmG9IcvD_35pulseengine_mcp_security_middleware5utils5testss_26test_timestamp_consistency
FNDA:1,_RNvNtNtCskktBmG9IcvD_35pulseengine_mcp_security_middleware5utils5testss_28test_hash_and_verify_api_key
FNDA:1,_RNvNtNtCskktBmG9IcvD_35pulseengine_mcp_security_middleware5utils5testss_28test_validate_api_key_format
FNDA:1,_RNvNtNtCskktBmG9IcvD_35pulseengine_mcp_security_middleware5utils5testss_29test_secure_random_edge_cases
FNDA:1,_RNvNtNtCskktBmG9IcvD_35pulseengine_mcp_security_middleware5utils5testss_30test_secure_compare_edge_cases
FNDA:1,_RNvNtNtCskktBmG9IcvD_35pulseengine_mcp_security_middleware5utils5testss_32test_hash_and_verify_consistency
FNDA:1,_RNvNtNtCskktBmG9IcvD_35pulseengine_mcp_security_middleware5utils5testss_39test_validate_api_key_format_edge_cases
FNDA:12,_RNvMNtCskktBmG9IcvD_35pulseengine_mcp_security_middleware5utilsNtB2_12SecureRandom13base64_string
FNDA:23,_RNvMNtCskktBmG9IcvD_35pulseengine_mcp_security_middleware5utilsNtB2_12SecureRandom17base64_url_string
FNDA:39,_RNvMNtCskktBmG9IcvD_35pulseengine_mcp_security_middleware5utilsNtB2_12SecureRandom5bytes
FNDA:4,_RNvMNtCskktBmG9IcvD_35pulseengine_mcp_security_middleware5utilsNtB2_12SecureRandom6string
FNDA:14,_RNvNtCskktBmG9IcvD_35pulseengine_mcp_security_middleware5utils12hash_api_key
FNDA:12,_RNvNtCskktBmG9IcvD_35pulseengine_mcp_security_middleware5utils14secure_compare
FNDA:6,_RNvNtCskktBmG9IcvD_35pulseengine_mcp_security_middleware5utils14verify_api_key
FNDA:17,_RNvNtCskktBmG9IcvD_35pulseengine_mcp_security_middleware5utils16generate_api_key
FNDA:8,_RNvNtCskktBmG9IcvD_35pulseengine_mcp_security_middleware5utils17current_timestamp
FNDA:12,_RNvNtCskktBmG9IcvD_35pulseengine_mcp_security_middleware5utils19generate_jwt_secret
FNDA:4,_RNvNtCskktBmG9IcvD_35pulseengine_mcp_security_middleware5utils19generate_request_id
FNDA:2,_RNvNtCskktBmG9IcvD_35pulseengine_mcp_security_middleware5utils19generate_session_id
FNDA:24,_RNvNtCskktBmG9IcvD_35pulseengine_mcp_security_middleware5utils23validate_api_key_format
FNF:28
FNH:28
DA:14,39
DA:15,39
DA:16,1505
DA:17,39
DA:20,4
DA:21,4
DA:22,4
DA:23,4
DA:24,4
DA:25,4
DA:26,4
DA:29,12
DA:30,12
DA:31,12
DA:32,12
DA:35,23
DA:36,23
DA:37,23
DA:38,23
DA:54,17
DA:55,17
DA:56,17
DA:57,17
DA:71,12
DA:72,12
DA:73,12
DA:79,14
DA:80,14
DA:81,14
DA:82,14
DA:83,14
DA:84,14
DA:89,6
DA:90,6
DA:91,6
DA:92,6
DA:95,8
DA:96,8
DA:97,8
DA:98,8
DA:99,8
DA:100,8
DA:103,24
DA:104,24
DA:105,7
DA:106,7
DA:107,7
DA:108,17
DA:110,17
DA:111,2
DA:112,15
DA:114,15
DA:115,0
DA:116,15
DA:119,15
DA:120,458
DA:121,458
DA:122,2
DA:123,2
DA:124,2
DA:125,456
DA:128,13
DA:129,24
DA:132,2
DA:133,2
DA:134,2
DA:137,4
DA:138,4
DA:139,4
DA:142,12
DA:143,12
DA:144,6
DA:145,6
DA:147,6
DA:148,103
DA:149,103
DA:150,103
DA:152,6
DA:153,12
DA:160,1
DA:161,1
DA:162,1
DA:165,1
DA:168,1
DA:169,1
DA:172,1
DA:173,1
DA:174,1
DA:177,1
DA:178,1
DA:179,1
DA:182,1
DA:185,1
DA:186,1
DA:187,1
DA:190,1
DA:191,1
DA:192,1
DA:195,1
DA:198,1
DA:199,1
DA:200,1
DA:203,1
DA:205,1
DA:206,1
DA:209,1
DA:210,1
DA:211,1
DA:212,1
DA:215,1
DA:216,1
DA:217,1
DA:218,1
DA:219,1
DA:220,1
DA:223,1
DA:224,1
DA:225,1
DA:227,1
DA:228,1
DA:229,1
DA:230,1
DA:233,1
DA:234,1
DA:235,1
DA:237,1
DA:238,1
DA:239,1
DA:240,1
DA:243,1
DA:244,1
DA:245,1
DA:246,1
DA:248,1
DA:249,1
DA:252,1
DA:253,1
DA:254,1
DA:256,1
DA:257,1
DA:258,1
DA:260,1
DA:261,1
DA:263,1
DA:264,1
DA:265,1
DA:266,1
DA:269,1
DA:271,1
DA:272,1
DA:274,1
DA:275,1
DA:278,1
DA:279,1
DA:281,1
DA:282,1
DA:283,1
DA:286,1
DA:288,1
DA:289,1
DA:290,1
DA:293,1
DA:296,1
DA:299,1
DA:302,1
DA:303,1
DA:304,1
DA:305,1
DA:308,1
DA:309,1
DA:310,1
DA:311,1
DA:314,1
DA:315,1
DA:316,1
DA:317,1
DA:320,1
DA:323,1
DA:324,1
DA:327,1
DA:328,1
DA:329,1
DA:332,1
DA:334,1
DA:335,1
DA:336,1
DA:339,1
DA:342,1
DA:343,1
DA:344,1
DA:347,1
DA:348,1
DA:349,1
DA:352,1
DA:353,1
DA:354,1
BRF:0
BRH:0
LF:197
LH:196
end_of_record